; Function Attrs: mustprogress nounwind uwtable
define void @_ZN3fmt3v116detail12report_errorEPFvRNS1_6bufferIcEEiPKcEiS6_(ptr noundef readonly captures(none) %0, i32 noundef %1, ptr noundef %2) local_unnamed_addr #3 personality ptr @__gxx_personality_v0 {
  %4 = alloca %"class.fmt::v11::basic_memory_buffer", align 8
  call void @llvm.lifetime.start.p0(i64 536, ptr nonnull %4) #32
  %5 = getelementptr inbounds nuw i8, ptr %4, i64 16
  %6 = getelementptr inbounds nuw i8, ptr %4, i64 24
  %7 = getelementptr inbounds nuw i8, ptr %4, i64 8
  store i64 0, ptr %7, align 8
  store ptr @_ZN3fmt3v1119basic_memory_bufferIcLm500ESaIcEE4growERNS0_6detail6bufferIcEEm, ptr %6, align 8, !tbaa !19
  %8 = getelementptr inbounds nuw i8, ptr %4, i64 32
  store ptr %8, ptr %4, align 8, !tbaa !20
  store i64 500, ptr %5, align 8, !tbaa !21
  invoke void %0(ptr noundef nonnull align 8 dereferenceable(32) %4, i32 noundef %1, ptr noundef %2)
          to label %9 unwind label %21

9:                                                ; preds = %3
  %10 = load ptr, ptr %4, align 8, !tbaa !20
  %11 = load i64, ptr %7, align 8, !tbaa !8
  %12 = load ptr, ptr @stderr, align 8, !tbaa !3
  %13 = call i64 @fwrite(ptr noundef %10, i64 noundef %11, i64 noundef 1, ptr noundef %12) #33
  %.not = icmp eq i64 %13, 0
  br i1 %.not, label %17, label %14

14:                                               ; preds = %9
  %15 = load ptr, ptr @stderr, align 8, !tbaa !3
  %16 = call i32 @fputc(i32 noundef 10, ptr noundef %15)
  br label %17

17:                                               ; preds = %14, %9
  %18 = load ptr, ptr %4, align 8, !tbaa !20
  %.not.i.i = icmp eq ptr %18, %8
  br i1 %.not.i.i, label %_ZN3fmt3v1119basic_memory_bufferIcLm500ESaIcEED2Ev.exit, label %19

19:                                               ; preds = %17
  %20 = load i64, ptr %5, align 8, !tbaa !21
  call void @_ZdlPvm(ptr noundef %18, i64 noundef %20) #34
  br label %_ZN3fmt3v1119basic_memory_bufferIcLm500ESaIcEED2Ev.exit

_ZN3fmt3v1119basic_memory_bufferIcLm500ESaIcEED2Ev.exit: ; preds = %17, %19
  call void @llvm.lifetime.end.p0(i64 536, ptr nonnull %4) #32
  ret void

21:                                               ; preds = %3
  %22 = landingpad { ptr, i32 }
          catch ptr null
  %23 = extractvalue { ptr, i32 } %22, 0
  call void @__clang_call_terminate(ptr %23) #31
  unreachable
}